target datalayout = "e-m:e-p270:32:32-p271:32:32-p272:64:64-i64:64-i128:128-f80:128-n8:16:32:64-S128"
target triple = "x86_64-pc-linux-gnu"

%struct.amqp_conv = type { i8, ptr }
%struct._packet_info = type { ptr, ptr, i32, i32, %struct.nstime_t, %struct.nstime_t, %struct.nstime_t, i8, ptr, ptr, ptr, ptr, %struct._address, %struct._address, %struct._address, %struct._address, %struct._address, %struct._address, i32, ptr, i8, [3 x i8], %struct.anon.1, i32, i32, i32, i32, ptr, i8, ptr, ptr, i16, i16, i32, i32, i16, i32, i32, ptr, ptr, ptr, i8, i8, i16, i16, i16, i32, i16, i16, ptr, ptr, ptr, ptr, ptr, i32, i32 }
%struct.nstime_t = type { i64, i32 }
%struct._address = type { i32, i32, ptr, ptr }
%struct.anon.1 = type { i8, [3 x i8] }

@.str.1058 = private unnamed_addr constant [5 x i8] c"AMQP\00", align 1
@proto_amqp = internal global i32 0, align 4
@version_table = internal global ptr null, align 8
@.str.1433 = private unnamed_addr constant [23 x i8] c"AMQP (unknown version)\00", align 1

; Function Attrs: null_pointer_is_valid sspstrong uwtable
define internal void @check_amqp_version(ptr noundef %0, ptr noundef %1) #0 {
  %3 = alloca ptr, align 8
  %4 = alloca ptr, align 8
  %5 = alloca i32, align 4
  %6 = alloca i32, align 4
  %7 = alloca i8, align 1
  %8 = alloca i8, align 1
  %9 = alloca i8, align 1
  store ptr %0, ptr %3, align 8
  store ptr %1, ptr %4, align 8
  call void @llvm.lifetime.start.p0(i64 4, ptr %5) #11
  %10 = load ptr, ptr %4, align 8
  %11 = getelementptr inbounds nuw %struct.amqp_conv, ptr %10, i32 0, i32 0
  %12 = load i8, ptr %11, align 8
  %13 = zext i8 %12 to i32
  %14 = icmp ne i32 %13, 0
  br i1 %14, label %15, label %21

15:                                               ; preds = %2
  %16 = load ptr, ptr %3, align 8
  %17 = call zeroext i8 @tvb_get_uint8(ptr noundef %16, i32 noundef 0)
  %18 = zext i8 %17 to i32
  %19 = icmp ne i32 %18, 65
  br i1 %19, label %20, label %21

20:                                               ; preds = %15
  store i32 1, ptr %6, align 4
  br label %100

21:                                               ; preds = %15, %2
  %22 = load ptr, ptr %3, align 8
  %23 = call i32 @tvb_memeql(ptr noundef %22, i32 noundef 0, ptr noundef @.str.1058, i64 noundef 4)
  %24 = icmp eq i32 %23, 0
  br i1 %24, label %25, label %68

25:                                               ; preds = %21
  call void @llvm.lifetime.start.p0(i64 1, ptr %7) #11
  call void @llvm.lifetime.start.p0(i64 1, ptr %8) #11
  call void @llvm.lifetime.start.p0(i64 1, ptr %9) #11
  %26 = load ptr, ptr %3, align 8
  %27 = call zeroext i8 @tvb_get_uint8(ptr noundef %26, i32 noundef 5)
  store i8 %27, ptr %7, align 1
  %28 = load ptr, ptr %3, align 8
  %29 = call zeroext i8 @tvb_get_uint8(ptr noundef %28, i32 noundef 6)
  store i8 %29, ptr %8, align 1
  %30 = load ptr, ptr %3, align 8
  %31 = call zeroext i8 @tvb_get_uint8(ptr noundef %30, i32 noundef 7)
  store i8 %31, ptr %9, align 1
  %32 = load i8, ptr %7, align 1
  %33 = zext i8 %32 to i32
  %34 = icmp eq i32 %33, 1
  br i1 %34, label %35, label %46

35:                                               ; preds = %25
  %36 = load i8, ptr %8, align 1
  %37 = zext i8 %36 to i32
  %38 = icmp eq i32 %37, 0
  br i1 %38, label %39, label %46

39:                                               ; preds = %35
  %40 = load i8, ptr %9, align 1
  %41 = zext i8 %40 to i32
  %42 = icmp eq i32 %41, 0
  br i1 %42, label %43, label %46

43:                                               ; preds = %39
  %44 = load ptr, ptr %4, align 8
  %45 = getelementptr inbounds nuw %struct.amqp_conv, ptr %44, i32 0, i32 0
  store i8 5, ptr %45, align 8
  br label %67

46:                                               ; preds = %39, %35, %25
  %47 = load i8, ptr %8, align 1
  %48 = zext i8 %47 to i32
  %49 = icmp eq i32 %48, 0
  br i1 %49, label %50, label %66

50:                                               ; preds = %46
  %51 = load i8, ptr %9, align 1
  %52 = zext i8 %51 to i32
  %53 = icmp eq i32 %52, 9
  br i1 %53, label %54, label %57

54:                                               ; preds = %50
  %55 = load ptr, ptr %4, align 8
  %56 = getelementptr inbounds nuw %struct.amqp_conv, ptr %55, i32 0, i32 0
  store i8 2, ptr %56, align 8
  br label %65

57:                                               ; preds = %50
  %58 = load i8, ptr %9, align 1
  %59 = zext i8 %58 to i32
  %60 = icmp eq i32 %59, 10
  br i1 %60, label %61, label %64

61:                                               ; preds = %57
  %62 = load ptr, ptr %4, align 8
  %63 = getelementptr inbounds nuw %struct.amqp_conv, ptr %62, i32 0, i32 0
  store i8 4, ptr %63, align 8
  br label %64

64:                                               ; preds = %61, %57
  br label %65

65:                                               ; preds = %64, %54
  br label %66

66:                                               ; preds = %65, %46
  br label %67

67:                                               ; preds = %66, %43
  store i32 1, ptr %6, align 4
  call void @llvm.lifetime.end.p0(i64 1, ptr %9) #11
  call void @llvm.lifetime.end.p0(i64 1, ptr %8) #11
  call void @llvm.lifetime.end.p0(i64 1, ptr %7) #11
  br label %100

68:                                               ; preds = %21
  %69 = load ptr, ptr %3, align 8
  %70 = call i32 @tvb_get_ntohl(ptr noundef %69, i32 noundef 3)
  %71 = add i32 %70, 7
  %72 = add i32 %71, 1
  store i32 %72, ptr %5, align 4
  %73 = load i32, ptr %5, align 4
  %74 = load ptr, ptr %3, align 8
  %75 = call i32 @tvb_reported_length(ptr noundef %74)
  %76 = icmp ule i32 %73, %75
  br i1 %76, label %77, label %87

77:                                               ; preds = %68
  %78 = load ptr, ptr %3, align 8
  %79 = load i32, ptr %5, align 4
  %80 = sub i32 %79, 1
  %81 = call zeroext i8 @tvb_get_uint8(ptr noundef %78, i32 noundef %80)
  %82 = zext i8 %81 to i32
  %83 = icmp eq i32 %82, 206
  br i1 %83, label %84, label %87

84:                                               ; preds = %77
  %85 = load ptr, ptr %4, align 8
  %86 = getelementptr inbounds nuw %struct.amqp_conv, ptr %85, i32 0, i32 0
  store i8 2, ptr %86, align 8
  br label %99

87:                                               ; preds = %77, %68
  %88 = load ptr, ptr %3, align 8
  %89 = call zeroext i8 @tvb_get_uint8(ptr noundef %88, i32 noundef 4)
  %90 = zext i8 %89 to i32
  %91 = icmp eq i32 %90, 0
  br i1 %91, label %92, label %95

92:                                               ; preds = %87
  %93 = load ptr, ptr %4, align 8
  %94 = getelementptr inbounds nuw %struct.amqp_conv, ptr %93, i32 0, i32 0
  store i8 4, ptr %94, align 8
  br label %98

95:                                               ; preds = %87
  %96 = load ptr, ptr %4, align 8
  %97 = getelementptr inbounds nuw %struct.amqp_conv, ptr %96, i32 0, i32 0
  store i8 5, ptr %97, align 8
  br label %98

98:                                               ; preds = %95, %92
  br label %99

99:                                               ; preds = %98, %84
  store i32 1, ptr %6, align 4
  br label %100

100:                                              ; preds = %99, %67, %20
  call void @llvm.lifetime.end.p0(i64 4, ptr %5) #11
  ret void
}

; Function Attrs: null_pointer_is_valid sspstrong uwtable
define internal i32 @dissect_amqp(ptr noundef %0, ptr noundef %1, ptr noundef %2, ptr noundef %3) #0 {
  %5 = alloca i32, align 4
  %6 = alloca ptr, align 8
  %7 = alloca ptr, align 8
  %8 = alloca ptr, align 8
  %9 = alloca ptr, align 8
  %10 = alloca ptr, align 8
  %11 = alloca ptr, align 8
  %12 = alloca i32, align 4
  store ptr %0, ptr %6, align 8
  store ptr %1, ptr %7, align 8
  store ptr %2, ptr %8, align 8
  store ptr %3, ptr %9, align 8
  call void @llvm.lifetime.start.p0(i64 8, ptr %10) #11
  call void @llvm.lifetime.start.p0(i64 8, ptr %11) #11
  %13 = load ptr, ptr %7, align 8
  %14 = getelementptr inbounds nuw %struct._packet_info, ptr %13, i32 0, i32 1
  %15 = load ptr, ptr %14, align 8
  call void @col_set_str(ptr noundef %15, i32 noundef 35, ptr noundef @.str.1058)
  %16 = load ptr, ptr %7, align 8
  %17 = getelementptr inbounds nuw %struct._packet_info, ptr %16, i32 0, i32 1
  %18 = load ptr, ptr %17, align 8
  call void @col_clear(ptr noundef %18, i32 noundef 25)
  %19 = load ptr, ptr %6, align 8
  %20 = call i32 @tvb_reported_length(ptr noundef %19)
  %21 = icmp ult i32 %20, 8
  br i1 %21, label %22, label %25

22:                                               ; preds = %4
  %23 = load ptr, ptr %7, align 8
  %24 = getelementptr inbounds nuw %struct._packet_info, ptr %23, i32 0, i32 34
  store i32 268435455, ptr %24, align 8
  store i32 -1, ptr %5, align 4
  store i32 1, ptr %12, align 4
  br label %72

25:                                               ; preds = %4
  %26 = load ptr, ptr %7, align 8
  %27 = call ptr @find_or_create_conversation(ptr noundef %26)
  store ptr %27, ptr %10, align 8
  %28 = load ptr, ptr %10, align 8
  %29 = load i32, ptr @proto_amqp, align 4
  %30 = call ptr @conversation_get_proto_data(ptr noundef %28, i32 noundef %29)
  store ptr %30, ptr %11, align 8
  %31 = load ptr, ptr %11, align 8
  %32 = icmp eq ptr %31, null
  br i1 %32, label %33, label %43

33:                                               ; preds = %25
  %34 = call ptr @wmem_file_scope()
  %35 = call noalias ptr @wmem_alloc0(ptr noundef %34, i64 noundef 16) #13
  store ptr %35, ptr %11, align 8
  %36 = call ptr @wmem_file_scope()
  %37 = call noalias ptr @wmem_map_new(ptr noundef %36, ptr noundef @g_direct_hash, ptr noundef @g_direct_equal)
  %38 = load ptr, ptr %11, align 8
  %39 = getelementptr inbounds nuw %struct.amqp_conv, ptr %38, i32 0, i32 1
  store ptr %37, ptr %39, align 8
  %40 = load ptr, ptr %10, align 8
  %41 = load i32, ptr @proto_amqp, align 4
  %42 = load ptr, ptr %11, align 8
  call void @conversation_add_proto_data(ptr noundef %40, i32 noundef %41, ptr noundef %42)
  br label %43

43:                                               ; preds = %33, %25
  %44 = load ptr, ptr %6, align 8
  %45 = load ptr, ptr %11, align 8
  call void @check_amqp_version(ptr noundef %44, ptr noundef %45)
  %46 = load ptr, ptr %7, align 8
  %47 = getelementptr inbounds nuw %struct._packet_info, ptr %46, i32 0, i32 32
  %48 = load i16, ptr %47, align 2
  %49 = load ptr, ptr %7, align 8
  %50 = getelementptr inbounds nuw %struct._packet_info, ptr %49, i32 0, i32 31
  store i16 %48, ptr %50, align 8
  %51 = load ptr, ptr @version_table, align 8
  %52 = load ptr, ptr %11, align 8
  %53 = getelementptr inbounds nuw %struct.amqp_conv, ptr %52, i32 0, i32 0
  %54 = load i8, ptr %53, align 8
  %55 = zext i8 %54 to i32
  %56 = load ptr, ptr %6, align 8
  %57 = load ptr, ptr %7, align 8
  %58 = load ptr, ptr %8, align 8
  %59 = load ptr, ptr %9, align 8
  %60 = call i32 @dissector_try_uint_with_data(ptr noundef %51, i32 noundef %55, ptr noundef %56, ptr noundef %57, ptr noundef %58, i1 noundef zeroext false, ptr noundef %59)
  %61 = icmp ne i32 %60, 0
  br i1 %61, label %69, label %62

62:                                               ; preds = %43
  %63 = load ptr, ptr %7, align 8
  %64 = getelementptr inbounds nuw %struct._packet_info, ptr %63, i32 0, i32 1
  %65 = load ptr, ptr %64, align 8
  call void @col_append_str(ptr noundef %65, i32 noundef 25, ptr noundef @.str.1433)
  %66 = load ptr, ptr %7, align 8
  %67 = getelementptr inbounds nuw %struct._packet_info, ptr %66, i32 0, i32 1
  %68 = load ptr, ptr %67, align 8
  call void @col_set_fence(ptr noundef %68, i32 noundef 25)
  br label %69

69:                                               ; preds = %62, %43
  %70 = load ptr, ptr %6, align 8
  %71 = call i32 @tvb_captured_length(ptr noundef %70)
  store i32 %71, ptr %5, align 4
  store i32 1, ptr %12, align 4
  br label %72

72:                                               ; preds = %69, %22
  call void @llvm.lifetime.end.p0(i64 8, ptr %11) #11
  call void @llvm.lifetime.end.p0(i64 8, ptr %10) #11
  %73 = load i32, ptr %5, align 4
  ret i32 %73
}