; Function Attrs: null_pointer_is_valid sspstrong uwtable
define internal i32 @dissect_amqp(ptr noundef %0, ptr noundef %1, ptr noundef %2, ptr noundef %3) #0 {
  %5 = getelementptr inbounds nuw i8, ptr %1, i64 8
  %6 = load ptr, ptr %5, align 8
  tail call void @col_set_str(ptr noundef %6, i32 noundef 35, ptr noundef nonnull @.str.1058)
  %7 = load ptr, ptr %5, align 8
  tail call void @col_clear(ptr noundef %7, i32 noundef 25)
  %8 = tail call i32 @tvb_reported_length(ptr noundef %0)
  %9 = icmp ult i32 %8, 8
  br i1 %9, label %10, label %12

10:                                               ; preds = %4
  %11 = getelementptr inbounds nuw i8, ptr %1, i64 336
  store i32 268435455, ptr %11, align 8
  br label %64

12:                                               ; preds = %4
  %13 = tail call ptr @find_or_create_conversation(ptr noundef %1)
  %14 = load i32, ptr @proto_amqp, align 4
  %15 = tail call ptr @conversation_get_proto_data(ptr noundef %13, i32 noundef %14)
  %16 = icmp eq ptr %15, null
  br i1 %16, label %17, label %24

17:                                               ; preds = %12
  %18 = tail call ptr @wmem_file_scope()
  %19 = tail call noalias dereferenceable_or_null(16) ptr @wmem_alloc0(ptr noundef %18, i64 noundef 16) #13
  %20 = tail call ptr @wmem_file_scope()
  %21 = tail call noalias ptr @wmem_map_new(ptr noundef %20, ptr noundef nonnull @g_direct_hash, ptr noundef nonnull @g_direct_equal)
  %22 = getelementptr inbounds nuw i8, ptr %19, i64 8
  store ptr %21, ptr %22, align 8
  %23 = load i32, ptr @proto_amqp, align 4
  tail call void @conversation_add_proto_data(ptr noundef %13, i32 noundef %23, ptr noundef %19)
  br label %24

24:                                               ; preds = %17, %12
  %.0 = phi ptr [ %19, %17 ], [ %15, %12 ]
  %25 = load i8, ptr %.0, align 8
  %.not.i = icmp eq i8 %25, 0
  br i1 %.not.i, label %28, label %26

26:                                               ; preds = %24
  %27 = tail call zeroext i8 @tvb_get_uint8(ptr noundef %0, i32 noundef 0)
  %.not28.i = icmp eq i8 %27, 65
  br i1 %.not28.i, label %28, label %check_amqp_version.exit

28:                                               ; preds = %26, %24
  %29 = tail call i32 @tvb_memeql(ptr noundef %0, i32 noundef 0, ptr noundef nonnull @.str.1058, i64 noundef 4)
  %30 = icmp eq i32 %29, 0
  br i1 %30, label %31, label %41

31:                                               ; preds = %28
  %32 = tail call zeroext i8 @tvb_get_uint8(ptr noundef %0, i32 noundef 5)
  %33 = tail call zeroext i8 @tvb_get_uint8(ptr noundef %0, i32 noundef 6)
  %34 = tail call zeroext i8 @tvb_get_uint8(ptr noundef %0, i32 noundef 7)
  %35 = icmp eq i8 %32, 1
  %36 = icmp eq i8 %33, 0
  %or.cond.i = select i1 %35, i1 %36, i1 false
  %37 = icmp eq i8 %34, 0
  %or.cond5.i = select i1 %or.cond.i, i1 %37, i1 false
  br i1 %or.cond5.i, label %.sink.split.i, label %38

38:                                               ; preds = %31
  br i1 %36, label %39, label %check_amqp_version.exit

39:                                               ; preds = %38
  switch i8 %34, label %check_amqp_version.exit [
    i8 9, label %.sink.split.i
    i8 10, label %40
  ]

40:                                               ; preds = %39
  br label %.sink.split.i

41:                                               ; preds = %28
  %42 = tail call i32 @tvb_get_ntohl(ptr noundef %0, i32 noundef 3)
  %43 = add i32 %42, 8
  %44 = tail call i32 @tvb_reported_length(ptr noundef %0)
  %.not29.i = icmp ugt i32 %43, %44
  br i1 %.not29.i, label %49, label %45

45:                                               ; preds = %41
  %46 = add i32 %42, 7
  %47 = tail call zeroext i8 @tvb_get_uint8(ptr noundef %0, i32 noundef %46)
  %48 = icmp eq i8 %47, -50
  br i1 %48, label %.sink.split.i, label %49

49:                                               ; preds = %45, %41
  %50 = tail call zeroext i8 @tvb_get_uint8(ptr noundef %0, i32 noundef 4)
  %51 = icmp eq i8 %50, 0
  %..i = select i1 %51, i8 4, i8 5
  br label %.sink.split.i

.sink.split.i:                                    ; preds = %49, %45, %40, %39, %31
  %.sink.i = phi i8 [ 4, %40 ], [ 5, %31 ], [ 2, %39 ], [ 2, %45 ], [ %..i, %49 ]
  store i8 %.sink.i, ptr %.0, align 8
  br label %check_amqp_version.exit

check_amqp_version.exit:                          ; preds = %26, %38, %39, %.sink.split.i
  %52 = getelementptr inbounds nuw i8, ptr %1, i64 330
  %53 = load i16, ptr %52, align 2
  %54 = getelementptr inbounds nuw i8, ptr %1, i64 328
  store i16 %53, ptr %54, align 8
  %55 = load ptr, ptr @version_table, align 8
  %56 = load i8, ptr %.0, align 8
  %57 = zext i8 %56 to i32
  %58 = tail call i32 @dissector_try_uint_with_data(ptr noundef %55, i32 noundef %57, ptr noundef %0, ptr noundef %1, ptr noundef %2, i1 noundef zeroext false, ptr noundef %3)
  %.not = icmp eq i32 %58, 0
  br i1 %.not, label %59, label %62

59:                                               ; preds = %check_amqp_version.exit
  %60 = load ptr, ptr %5, align 8
  tail call void @col_append_str(ptr noundef %60, i32 noundef 25, ptr noundef nonnull @.str.1433)
  %61 = load ptr, ptr %5, align 8
  tail call void @col_set_fence(ptr noundef %61, i32 noundef 25)
  br label %62

62:                                               ; preds = %59, %check_amqp_version.exit
  %63 = tail call i32 @tvb_captured_length(ptr noundef %0)
  br label %64

64:                                               ; preds = %62, %10
  %.022 = phi i32 [ -1, %10 ], [ %63, %62 ]
  ret i32 %.022
}